; Function Attrs: nounwind uwtable
define noalias noundef ptr @Abc_NtkRetimeCollectLatchValues(ptr noundef readonly captures(none) %0) local_unnamed_addr #0 {
  %2 = getelementptr i8, ptr %0, i64 128
  %.val14 = load i32, ptr %2, align 8, !tbaa !27
  %3 = tail call noalias dereferenceable_or_null(16) ptr @malloc(i64 noundef 16) #14
  %4 = add i32 %.val14, -1
  %or.cond.i = icmp ult i32 %4, 15
  %spec.store.select.i = select i1 %or.cond.i, i32 16, i32 %.val14
  %5 = getelementptr inbounds nuw i8, ptr %3, i64 4
  store i32 0, ptr %5, align 4, !tbaa !3
  store i32 %spec.store.select.i, ptr %3, align 8, !tbaa !10
  %.not.i = icmp eq i32 %spec.store.select.i, 0
  br i1 %.not.i, label %Vec_IntAlloc.exit, label %6

6:                                                ; preds = %1
  %7 = sext i32 %spec.store.select.i to i64
  %8 = shl nsw i64 %7, 2
  %9 = tail call noalias ptr @malloc(i64 noundef %8) #14
  br label %Vec_IntAlloc.exit

Vec_IntAlloc.exit:                                ; preds = %1, %6
  %10 = phi ptr [ %9, %6 ], [ null, %1 ]
  %11 = getelementptr inbounds nuw i8, ptr %3, i64 8
  store ptr %10, ptr %11, align 8, !tbaa !11
  %12 = getelementptr inbounds nuw i8, ptr %0, i64 32
  %13 = load ptr, ptr %12, align 8, !tbaa !45
  %14 = getelementptr i8, ptr %13, i64 4
  %.val15 = load i32, ptr %14, align 4, !tbaa !34
  %15 = icmp sgt i32 %.val15, 0
  br i1 %15, label %.lr.ph, label %.critedge

.lr.ph:                                           ; preds = %Vec_IntAlloc.exit, %50
  %16 = phi ptr [ %51, %50 ], [ %13, %Vec_IntAlloc.exit ]
  %17 = phi ptr [ %.pre.i19, %50 ], [ %10, %Vec_IntAlloc.exit ]
  %indvars.iv = phi i64 [ %indvars.iv.next, %50 ], [ 0, %Vec_IntAlloc.exit ]
  %18 = getelementptr i8, ptr %16, i64 8
  %.val11.val = load ptr, ptr %18, align 8, !tbaa !36
  %19 = getelementptr inbounds nuw ptr, ptr %.val11.val, i64 %indvars.iv
  %20 = load ptr, ptr %19, align 8, !tbaa !37
  %21 = icmp eq ptr %20, null
  br i1 %21, label %50, label %22

22:                                               ; preds = %.lr.ph
  %23 = getelementptr i8, ptr %20, i64 20
  %.val12 = load i32, ptr %23, align 4
  %24 = and i32 %.val12, 15
  %.not = icmp eq i32 %24, 8
  br i1 %.not, label %25, label %50

25:                                               ; preds = %22
  %26 = getelementptr i8, ptr %20, i64 56
  %.val13 = load ptr, ptr %26, align 8, !tbaa !38
  %27 = icmp eq ptr %.val13, inttoptr (i64 2 to ptr)
  %28 = zext i1 %27 to i32
  %29 = load i32, ptr %5, align 4, !tbaa !3
  %30 = load i32, ptr %3, align 8, !tbaa !10
  %31 = icmp eq i32 %29, %30
  br i1 %31, label %32, label %Vec_IntPush.exit

32:                                               ; preds = %25
  %33 = icmp slt i32 %29, 16
  br i1 %33, label %34, label %39

34:                                               ; preds = %32
  %.not9.i.i = icmp eq ptr %17, null
  br i1 %.not9.i.i, label %37, label %35

35:                                               ; preds = %34
  %36 = tail call dereferenceable_or_null(64) ptr @realloc(ptr noundef nonnull %17, i64 noundef 64) #17
  br label %Vec_IntPush.exit.sink.split

37:                                               ; preds = %34
  %38 = tail call noalias dereferenceable_or_null(64) ptr @malloc(i64 noundef 64) #14
  br label %Vec_IntPush.exit.sink.split

39:                                               ; preds = %32
  %40 = shl nuw nsw i32 %29, 1
  %.not9.i9.i = icmp eq ptr %17, null
  %41 = zext nneg i32 %40 to i64
  %42 = shl nuw nsw i64 %41, 2
  br i1 %.not9.i9.i, label %45, label %43

43:                                               ; preds = %39
  %44 = tail call ptr @realloc(ptr noundef nonnull %17, i64 noundef %42) #17
  br label %Vec_IntPush.exit.sink.split

45:                                               ; preds = %39
  %46 = tail call noalias ptr @malloc(i64 noundef %42) #14
  br label %Vec_IntPush.exit.sink.split

Vec_IntPush.exit.sink.split:                      ; preds = %43, %45, %35, %37
  %.sink21 = phi ptr [ %36, %35 ], [ %38, %37 ], [ %44, %43 ], [ %46, %45 ]
  %.sink = phi i32 [ 16, %35 ], [ 16, %37 ], [ %40, %43 ], [ %40, %45 ]
  store ptr %.sink21, ptr %11, align 8, !tbaa !11
  store i32 %.sink, ptr %3, align 8, !tbaa !10
  br label %Vec_IntPush.exit

Vec_IntPush.exit:                                 ; preds = %Vec_IntPush.exit.sink.split, %25
  %.pre.i20 = phi ptr [ %17, %25 ], [ %.sink21, %Vec_IntPush.exit.sink.split ]
  %47 = add nsw i32 %29, 1
  store i32 %47, ptr %5, align 4, !tbaa !3
  %48 = sext i32 %29 to i64
  %49 = getelementptr inbounds i32, ptr %.pre.i20, i64 %48
  store i32 %28, ptr %49, align 4, !tbaa !27
  %.pre = load ptr, ptr %12, align 8, !tbaa !45
  br label %50

50:                                               ; preds = %.lr.ph, %Vec_IntPush.exit, %22
  %51 = phi ptr [ %16, %.lr.ph ], [ %.pre, %Vec_IntPush.exit ], [ %16, %22 ]
  %.pre.i19 = phi ptr [ %17, %.lr.ph ], [ %.pre.i20, %Vec_IntPush.exit ], [ %17, %22 ]
  %indvars.iv.next = add nuw nsw i64 %indvars.iv, 1
  %52 = getelementptr i8, ptr %51, i64 4
  %.val = load i32, ptr %52, align 4, !tbaa !34
  %53 = sext i32 %.val to i64
  %54 = icmp slt i64 %indvars.iv.next, %53
  br i1 %54, label %.lr.ph, label %.critedge, !llvm.loop !59

.critedge:                                        ; preds = %50, %Vec_IntAlloc.exit
  ret ptr %3
}